target datalayout = "e-m:e-p270:32:32-p271:32:32-p272:64:64-i64:64-i128:128-f80:128-n8:16:32:64-S128"
target triple = "x86_64-pc-linux-gnu"

@globalUtilOptind = global i32 0, align 4
@globalUtilOptarg = global ptr null, align 8
@pScanStr = internal global ptr null, align 8
@stderr = external global ptr, align 8
@.str = private unnamed_addr constant [23 x i8] c"%s: unknown option %c\0A\00", align 1
@.str.1 = private unnamed_addr constant [29 x i8] c"%s: %c requires an argument\0A\00", align 1

; Function Attrs: nounwind uwtable
define i32 @Extra_UtilGetopt(i32 noundef %0, ptr noundef %1, ptr noundef %2) #0 {
  %4 = alloca i32, align 4
  %5 = alloca i32, align 4
  %6 = alloca ptr, align 8
  %7 = alloca ptr, align 8
  %8 = alloca i32, align 4
  %9 = alloca ptr, align 8
  store i32 %0, ptr %5, align 4
  store ptr %1, ptr %6, align 8
  store ptr %2, ptr %7, align 8
  store ptr null, ptr @globalUtilOptarg, align 8
  %10 = load ptr, ptr @pScanStr, align 8
  %11 = icmp eq ptr %10, null
  br i1 %11, label %17, label %12

12:                                               ; preds = %3
  %13 = load ptr, ptr @pScanStr, align 8
  %14 = load i8, ptr %13, align 1
  %15 = sext i8 %14 to i32
  %16 = icmp eq i32 %15, 0
  br i1 %16, label %17, label %64

17:                                               ; preds = %12, %3
  %18 = load i32, ptr @globalUtilOptind, align 4
  %19 = icmp eq i32 %18, 0
  br i1 %19, label %20, label %23

20:                                               ; preds = %17
  %21 = load i32, ptr @globalUtilOptind, align 4
  %22 = add nsw i32 %21, 1
  store i32 %22, ptr @globalUtilOptind, align 4
  br label %23

23:                                               ; preds = %20, %17
  %24 = load i32, ptr @globalUtilOptind, align 4
  %25 = load i32, ptr %5, align 4
  %26 = icmp sge i32 %24, %25
  br i1 %26, label %27, label %28

27:                                               ; preds = %23
  store i32 -1, ptr %4, align 4
  br label %119

28:                                               ; preds = %23
  %29 = load ptr, ptr %6, align 8
  %30 = load i32, ptr @globalUtilOptind, align 4
  %31 = sext i32 %30 to i64
  %32 = getelementptr inbounds ptr, ptr %29, i64 %31
  %33 = load ptr, ptr %32, align 8
  store ptr %33, ptr %9, align 8
  %34 = load ptr, ptr %9, align 8
  %35 = getelementptr inbounds i8, ptr %34, i64 0
  %36 = load i8, ptr %35, align 1
  %37 = sext i8 %36 to i32
  %38 = icmp ne i32 %37, 45
  br i1 %38, label %45, label %39

39:                                               ; preds = %28
  %40 = load ptr, ptr %9, align 8
  %41 = getelementptr inbounds i8, ptr %40, i64 1
  %42 = load i8, ptr %41, align 1
  %43 = sext i8 %42 to i32
  %44 = icmp eq i32 %43, 0
  br i1 %44, label %45, label %46

45:                                               ; preds = %39, %28
  store i32 -1, ptr %4, align 4
  br label %119

46:                                               ; preds = %39
  %47 = load i32, ptr @globalUtilOptind, align 4
  %48 = add nsw i32 %47, 1
  store i32 %48, ptr @globalUtilOptind, align 4
  %49 = load ptr, ptr %9, align 8
  %50 = getelementptr inbounds i8, ptr %49, i64 1
  %51 = load i8, ptr %50, align 1
  %52 = sext i8 %51 to i32
  %53 = icmp eq i32 %52, 45
  br i1 %53, label %54, label %61

54:                                               ; preds = %46
  %55 = load ptr, ptr %9, align 8
  %56 = getelementptr inbounds i8, ptr %55, i64 2
  %57 = load i8, ptr %56, align 1
  %58 = sext i8 %57 to i32
  %59 = icmp eq i32 %58, 0
  br i1 %59, label %60, label %61

60:                                               ; preds = %54
  store i32 -1, ptr %4, align 4
  br label %119

61:                                               ; preds = %54, %46
  %62 = load ptr, ptr %9, align 8
  %63 = getelementptr inbounds i8, ptr %62, i64 1
  store ptr %63, ptr @pScanStr, align 8
  br label %64

64:                                               ; preds = %61, %12
  %65 = load ptr, ptr @pScanStr, align 8
  %66 = getelementptr inbounds i8, ptr %65, i32 1
  store ptr %66, ptr @pScanStr, align 8
  %67 = load i8, ptr %65, align 1
  %68 = sext i8 %67 to i32
  store i32 %68, ptr %8, align 4
  %69 = load ptr, ptr %7, align 8
  %70 = load i32, ptr %8, align 4
  %71 = call ptr @strchr(ptr noundef %69, i32 noundef %70) #6
  store ptr %71, ptr %9, align 8
  %72 = load ptr, ptr %9, align 8
  %73 = icmp eq ptr %72, null
  br i1 %73, label %77, label %74

74:                                               ; preds = %64
  %75 = load i32, ptr %8, align 4
  %76 = icmp eq i32 %75, 58
  br i1 %76, label %77, label %84

77:                                               ; preds = %74, %64
  %78 = load ptr, ptr @stderr, align 8
  %79 = load ptr, ptr %6, align 8
  %80 = getelementptr inbounds ptr, ptr %79, i64 0
  %81 = load ptr, ptr %80, align 8
  %82 = load i32, ptr %8, align 4
  %83 = call i32 (ptr, ptr, ...) @fprintf(ptr noundef %78, ptr noundef @.str, ptr noundef %81, i32 noundef %82) #7
  store i32 63, ptr %4, align 4
  br label %119

84:                                               ; preds = %74
  %85 = load ptr, ptr %9, align 8
  %86 = getelementptr inbounds i8, ptr %85, i32 1
  store ptr %86, ptr %9, align 8
  %87 = load i8, ptr %86, align 1
  %88 = sext i8 %87 to i32
  %89 = icmp eq i32 %88, 58
  br i1 %89, label %90, label %117

90:                                               ; preds = %84
  %91 = load ptr, ptr @pScanStr, align 8
  %92 = load i8, ptr %91, align 1
  %93 = sext i8 %92 to i32
  %94 = icmp ne i32 %93, 0
  br i1 %94, label %95, label %97

95:                                               ; preds = %90
  %96 = load ptr, ptr @pScanStr, align 8
  store ptr %96, ptr @globalUtilOptarg, align 8
  store ptr null, ptr @pScanStr, align 8
  br label %116

97:                                               ; preds = %90
  %98 = load i32, ptr @globalUtilOptind, align 4
  %99 = load i32, ptr %5, align 4
  %100 = icmp sge i32 %98, %99
  br i1 %100, label %101, label %108

101:                                              ; preds = %97
  %102 = load ptr, ptr @stderr, align 8
  %103 = load ptr, ptr %6, align 8
  %104 = getelementptr inbounds ptr, ptr %103, i64 0
  %105 = load ptr, ptr %104, align 8
  %106 = load i32, ptr %8, align 4
  %107 = call i32 (ptr, ptr, ...) @fprintf(ptr noundef %102, ptr noundef @.str.1, ptr noundef %105, i32 noundef %106) #7
  store i32 63, ptr %4, align 4
  br label %119

108:                                              ; preds = %97
  %109 = load ptr, ptr %6, align 8
  %110 = load i32, ptr @globalUtilOptind, align 4
  %111 = sext i32 %110 to i64
  %112 = getelementptr inbounds ptr, ptr %109, i64 %111
  %113 = load ptr, ptr %112, align 8
  store ptr %113, ptr @globalUtilOptarg, align 8
  %114 = load i32, ptr @globalUtilOptind, align 4
  %115 = add nsw i32 %114, 1
  store i32 %115, ptr @globalUtilOptind, align 4
  br label %116

116:                                              ; preds = %108, %95
  br label %117

117:                                              ; preds = %116, %84
  %118 = load i32, ptr %8, align 4
  store i32 %118, ptr %4, align 4
  br label %119

119:                                              ; preds = %117, %101, %77, %60, %45, %27
  %120 = load i32, ptr %4, align 4
  ret i32 %120
}