; Function Attrs: nofree nounwind uwtable
define range(i32 -128, 128) i32 @Extra_UtilGetopt(i32 noundef %0, ptr noundef readonly captures(none) %1, ptr noundef readonly %2) local_unnamed_addr #2 {
  store ptr null, ptr @globalUtilOptarg, align 8
  %4 = load ptr, ptr @pScanStr, align 8
  %5 = icmp eq ptr %4, null
  br i1 %5, label %9, label %6

6:                                                ; preds = %3
  %7 = load i8, ptr %4, align 1
  %8 = icmp eq i8 %7, 0
  br i1 %8, label %9, label %32

9:                                                ; preds = %6, %3
  %10 = load i32, ptr @globalUtilOptind, align 4
  %11 = icmp eq i32 %10, 0
  br i1 %11, label %12, label %13

12:                                               ; preds = %9
  store i32 1, ptr @globalUtilOptind, align 4
  br label %13

13:                                               ; preds = %12, %9
  %14 = phi i32 [ 1, %12 ], [ %10, %9 ]
  %.not = icmp slt i32 %14, %0
  br i1 %.not, label %15, label %62

15:                                               ; preds = %13
  %16 = sext i32 %14 to i64
  %17 = getelementptr inbounds ptr, ptr %1, i64 %16
  %18 = load ptr, ptr %17, align 8
  %19 = load i8, ptr %18, align 1
  %.not26 = icmp eq i8 %19, 45
  br i1 %.not26, label %20, label %62

20:                                               ; preds = %15
  %21 = getelementptr inbounds nuw i8, ptr %18, i64 1
  %22 = load i8, ptr %21, align 1
  %23 = icmp eq i8 %22, 0
  br i1 %23, label %62, label %24

24:                                               ; preds = %20
  %25 = add nsw i32 %14, 1
  store i32 %25, ptr @globalUtilOptind, align 4
  %26 = load i8, ptr %21, align 1
  %27 = icmp eq i8 %26, 45
  br i1 %27, label %28, label %32

28:                                               ; preds = %24
  %29 = getelementptr inbounds nuw i8, ptr %18, i64 2
  %30 = load i8, ptr %29, align 1
  %31 = icmp eq i8 %30, 0
  br i1 %31, label %62, label %32

32:                                               ; preds = %24, %28, %6
  %33 = phi i8 [ %7, %6 ], [ %26, %28 ], [ %26, %24 ]
  %34 = phi ptr [ %4, %6 ], [ %21, %28 ], [ %21, %24 ]
  %35 = getelementptr inbounds nuw i8, ptr %34, i64 1
  store ptr %35, ptr @pScanStr, align 8
  %36 = sext i8 %33 to i32
  %37 = tail call ptr @strchr(ptr noundef nonnull dereferenceable(1) %2, i32 noundef %36) #14
  %38 = icmp eq ptr %37, null
  %39 = icmp eq i8 %33, 58
  %or.cond = or i1 %39, %38
  br i1 %or.cond, label %40, label %44

40:                                               ; preds = %32
  %41 = load ptr, ptr @stderr, align 8
  %42 = load ptr, ptr %1, align 8
  %43 = tail call i32 (ptr, ptr, ...) @fprintf(ptr noundef %41, ptr noundef nonnull @.str, ptr noundef %42, i32 noundef %36) #15
  br label %62

44:                                               ; preds = %32
  %45 = getelementptr inbounds nuw i8, ptr %37, i64 1
  %46 = load i8, ptr %45, align 1
  %47 = icmp eq i8 %46, 58
  br i1 %47, label %48, label %62

48:                                               ; preds = %44
  %49 = load i8, ptr %35, align 1
  %.not27 = icmp eq i8 %49, 0
  br i1 %.not27, label %51, label %50

50:                                               ; preds = %48
  store ptr %35, ptr @globalUtilOptarg, align 8
  store ptr null, ptr @pScanStr, align 8
  br label %62

51:                                               ; preds = %48
  %52 = load i32, ptr @globalUtilOptind, align 4
  %.not28 = icmp slt i32 %52, %0
  br i1 %.not28, label %57, label %53

53:                                               ; preds = %51
  %54 = load ptr, ptr @stderr, align 8
  %55 = load ptr, ptr %1, align 8
  %56 = tail call i32 (ptr, ptr, ...) @fprintf(ptr noundef %54, ptr noundef nonnull @.str.1, ptr noundef %55, i32 noundef %36) #15
  br label %62

57:                                               ; preds = %51
  %58 = sext i32 %52 to i64
  %59 = getelementptr inbounds ptr, ptr %1, i64 %58
  %60 = load ptr, ptr %59, align 8
  store ptr %60, ptr @globalUtilOptarg, align 8
  %61 = add nsw i32 %52, 1
  store i32 %61, ptr @globalUtilOptind, align 4
  br label %62

62:                                               ; preds = %44, %57, %50, %28, %15, %20, %13, %53, %40
  %.0 = phi i32 [ 63, %40 ], [ 63, %53 ], [ -1, %13 ], [ -1, %20 ], [ -1, %15 ], [ -1, %28 ], [ %36, %50 ], [ %36, %57 ], [ %36, %44 ]
  ret i32 %.0
}